; Function Attrs: mustprogress nounwind uwtable
define dso_local noundef zeroext i1 @_ZNK5clang20UnresolvedMemberExpr16isImplicitAccessEv(ptr noundef nonnull readonly align 8 captures(none) dereferenceable(80) %0) local_unnamed_addr #4 align 2 {
  %2 = getelementptr inbounds nuw i8, ptr %0, i64 56
  %3 = load ptr, ptr %2, align 8
  %.not = icmp eq ptr %3, null
  br i1 %.not, label %6, label %4

4:                                                ; preds = %1
  %5 = tail call noundef zeroext i1 @_ZNK5clang4Expr17isImplicitCXXThisEv(ptr noundef nonnull align 8 dereferenceable(16) %3) #16
  br label %6

6:                                                ; preds = %1, %4
  %.0 = phi i1 [ %5, %4 ], [ true, %1 ]
  ret i1 %.0
}